; Function Attrs: nounwind uwtable
define ptr @Cudd_bddUnivAbstract(ptr noundef %0, ptr noundef %1, ptr noundef %2) local_unnamed_addr #0 {
  %4 = ptrtoint ptr %2 to i64
  %5 = and i64 %4, 1
  %.not11.i = icmp eq i64 %5, 0
  br i1 %.not11.i, label %.lr.ph.i, label %.loopexit

.lr.ph.i:                                         ; preds = %3
  %6 = getelementptr inbounds nuw i8, ptr %0, i64 40
  %7 = load ptr, ptr %6, align 8, !tbaa !3
  %8 = ptrtoint ptr %7 to i64
  %9 = xor i64 %8, 1
  %10 = inttoptr i64 %9 to ptr
  br label %11

11:                                               ; preds = %tailrecurse.i, %.lr.ph.i
  %.tr1012.i = phi ptr [ %2, %.lr.ph.i ], [ %25, %tailrecurse.i ]
  %12 = icmp eq ptr %.tr1012.i, %7
  br i1 %12, label %bddCheckPositiveCube.exit.preheader, label %17

bddCheckPositiveCube.exit.preheader:              ; preds = %11
  %13 = getelementptr inbounds nuw i8, ptr %0, i64 448
  %14 = ptrtoint ptr %1 to i64
  %15 = xor i64 %14, 1
  %16 = inttoptr i64 %15 to ptr
  br label %bddCheckPositiveCube.exit

17:                                               ; preds = %11
  %18 = load i32, ptr %.tr1012.i, align 8, !tbaa !24
  %19 = icmp eq i32 %18, 2147483647
  br i1 %19, label %.loopexit, label %20

20:                                               ; preds = %17
  %21 = getelementptr inbounds nuw i8, ptr %.tr1012.i, i64 24
  %22 = load ptr, ptr %21, align 8, !tbaa !25
  %23 = icmp eq ptr %22, %10
  br i1 %23, label %tailrecurse.i, label %.loopexit

tailrecurse.i:                                    ; preds = %20
  %24 = getelementptr inbounds nuw i8, ptr %.tr1012.i, i64 16
  %25 = load ptr, ptr %24, align 8, !tbaa !25
  %26 = ptrtoint ptr %25 to i64
  %27 = and i64 %26, 1
  %.not.i = icmp eq i64 %27, 0
  br i1 %.not.i, label %11, label %.loopexit

.loopexit:                                        ; preds = %20, %17, %tailrecurse.i, %3
  %28 = getelementptr inbounds nuw i8, ptr %0, i64 616
  %29 = load ptr, ptr %28, align 8, !tbaa !26
  %30 = tail call i64 @fwrite(ptr nonnull @.str, i64 40, i64 1, ptr %29)
  %31 = getelementptr inbounds nuw i8, ptr %0, i64 624
  store i32 4, ptr %31, align 8, !tbaa !27
  br label %39

bddCheckPositiveCube.exit:                        ; preds = %bddCheckPositiveCube.exit.preheader, %bddCheckPositiveCube.exit
  store i32 0, ptr %13, align 8, !tbaa !28
  %32 = tail call ptr @cuddBddExistAbstractRecur(ptr noundef %0, ptr noundef %16, ptr noundef %2)
  %33 = load i32, ptr %13, align 8, !tbaa !28
  %34 = icmp eq i32 %33, 1
  br i1 %34, label %bddCheckPositiveCube.exit, label %35, !llvm.loop !39

35:                                               ; preds = %bddCheckPositiveCube.exit
  %.not = icmp eq ptr %32, null
  %36 = ptrtoint ptr %32 to i64
  %37 = xor i64 %36, 1
  %38 = inttoptr i64 %37 to ptr
  %.0 = select i1 %.not, ptr null, ptr %38
  br label %39

39:                                               ; preds = %35, %.loopexit
  %.013 = phi ptr [ null, %.loopexit ], [ %.0, %35 ]
  ret ptr %.013
}